target datalayout = "e-m:e-p270:32:32-p271:32:32-p272:64:64-i64:64-i128:128-f80:128-n8:16:32:64-S128"
target triple = "x86_64-pc-linux-gnu"

%struct.expert_field = type { i32, i32 }

@is_uplink = internal global i32 0, align 4
@ei_gsm_a_dtap_extraneous_data = internal global %struct.expert_field zeroinitializer, align 4
@.str.183 = private unnamed_addr constant [13 x i8] c" - Full Name\00", align 1
@.str.184 = private unnamed_addr constant [14 x i8] c" - Short Name\00", align 1
@.str.185 = private unnamed_addr constant [9 x i8] c" - Local\00", align 1
@.str.186 = private unnamed_addr constant [38 x i8] c" - Universal Time and Local Time Zone\00", align 1

; Function Attrs: null_pointer_is_valid sspstrong uwtable
define hidden void @dtap_mm_mm_info(ptr noundef %0, ptr noundef %1, ptr noundef %2, i32 noundef %3, i32 noundef %4) #1 {
  %6 = alloca ptr, align 8
  %7 = alloca ptr, align 8
  %8 = alloca ptr, align 8
  %9 = alloca i32, align 4
  %10 = alloca i32, align 4
  %11 = alloca i32, align 4
  %12 = alloca i32, align 4
  %13 = alloca i32, align 4
  %14 = alloca i32, align 4
  store ptr %0, ptr %6, align 8
  store ptr %1, ptr %7, align 8
  store ptr %2, ptr %8, align 8
  store i32 %3, ptr %9, align 4
  store i32 %4, ptr %10, align 4
  call void @llvm.lifetime.start.p0(i64 4, ptr %11) #7
  call void @llvm.lifetime.start.p0(i64 4, ptr %12) #7
  call void @llvm.lifetime.start.p0(i64 4, ptr %13) #7
  %15 = load i32, ptr %9, align 4
  store i32 %15, ptr %11, align 4
  %16 = load i32, ptr %10, align 4
  store i32 %16, ptr %13, align 4
  store i32 1, ptr @is_uplink, align 4
  %17 = load i32, ptr %13, align 4
  %18 = icmp sle i32 %17, 0
  br i1 %18, label %19, label %20

19:                                               ; preds = %5
  store i32 1, ptr %14, align 4
  br label %150

20:                                               ; preds = %5
  %21 = load ptr, ptr %6, align 8
  %22 = load ptr, ptr %7, align 8
  %23 = load ptr, ptr %8, align 8
  %24 = load i32, ptr %11, align 4
  %25 = load i32, ptr %13, align 4
  %26 = call zeroext i16 @elem_tlv(ptr noundef %21, ptr noundef %22, ptr noundef %23, i8 noundef zeroext 67, i32 noundef 1, i32 noundef 8, i32 noundef %24, i32 noundef %25, ptr noundef @.str.183)
  %27 = zext i16 %26 to i32
  store i32 %27, ptr %12, align 4
  %28 = icmp ugt i32 %27, 0
  br i1 %28, label %29, label %36

29:                                               ; preds = %20
  %30 = load i32, ptr %12, align 4
  %31 = load i32, ptr %11, align 4
  %32 = add i32 %31, %30
  store i32 %32, ptr %11, align 4
  %33 = load i32, ptr %12, align 4
  %34 = load i32, ptr %13, align 4
  %35 = sub i32 %34, %33
  store i32 %35, ptr %13, align 4
  br label %36

36:                                               ; preds = %29, %20
  %37 = load i32, ptr %13, align 4
  %38 = icmp sle i32 %37, 0
  br i1 %38, label %39, label %40

39:                                               ; preds = %36
  store i32 1, ptr %14, align 4
  br label %150

40:                                               ; preds = %36
  %41 = load ptr, ptr %6, align 8
  %42 = load ptr, ptr %7, align 8
  %43 = load ptr, ptr %8, align 8
  %44 = load i32, ptr %11, align 4
  %45 = load i32, ptr %13, align 4
  %46 = call zeroext i16 @elem_tlv(ptr noundef %41, ptr noundef %42, ptr noundef %43, i8 noundef zeroext 69, i32 noundef 1, i32 noundef 8, i32 noundef %44, i32 noundef %45, ptr noundef @.str.184)
  %47 = zext i16 %46 to i32
  store i32 %47, ptr %12, align 4
  %48 = icmp ugt i32 %47, 0
  br i1 %48, label %49, label %56

49:                                               ; preds = %40
  %50 = load i32, ptr %12, align 4
  %51 = load i32, ptr %11, align 4
  %52 = add i32 %51, %50
  store i32 %52, ptr %11, align 4
  %53 = load i32, ptr %12, align 4
  %54 = load i32, ptr %13, align 4
  %55 = sub i32 %54, %53
  store i32 %55, ptr %13, align 4
  br label %56

56:                                               ; preds = %49, %40
  %57 = load i32, ptr %13, align 4
  %58 = icmp sle i32 %57, 0
  br i1 %58, label %59, label %60

59:                                               ; preds = %56
  store i32 1, ptr %14, align 4
  br label %150

60:                                               ; preds = %56
  %61 = load ptr, ptr %6, align 8
  %62 = load ptr, ptr %7, align 8
  %63 = load ptr, ptr %8, align 8
  %64 = load i32, ptr %11, align 4
  %65 = call zeroext i16 @elem_tv(ptr noundef %61, ptr noundef %62, ptr noundef %63, i8 noundef zeroext 70, i32 noundef 1, i32 noundef 11, i32 noundef %64, ptr noundef @.str.185)
  %66 = zext i16 %65 to i32
  store i32 %66, ptr %12, align 4
  %67 = icmp ugt i32 %66, 0
  br i1 %67, label %68, label %75

68:                                               ; preds = %60
  %69 = load i32, ptr %12, align 4
  %70 = load i32, ptr %11, align 4
  %71 = add i32 %70, %69
  store i32 %71, ptr %11, align 4
  %72 = load i32, ptr %12, align 4
  %73 = load i32, ptr %13, align 4
  %74 = sub i32 %73, %72
  store i32 %74, ptr %13, align 4
  br label %75

75:                                               ; preds = %68, %60
  %76 = load i32, ptr %13, align 4
  %77 = icmp sle i32 %76, 0
  br i1 %77, label %78, label %79

78:                                               ; preds = %75
  store i32 1, ptr %14, align 4
  br label %150

79:                                               ; preds = %75
  %80 = load ptr, ptr %6, align 8
  %81 = load ptr, ptr %7, align 8
  %82 = load ptr, ptr %8, align 8
  %83 = load i32, ptr %11, align 4
  %84 = call zeroext i16 @elem_tv(ptr noundef %80, ptr noundef %81, ptr noundef %82, i8 noundef zeroext 71, i32 noundef 1, i32 noundef 12, i32 noundef %83, ptr noundef @.str.186)
  %85 = zext i16 %84 to i32
  store i32 %85, ptr %12, align 4
  %86 = icmp ugt i32 %85, 0
  br i1 %86, label %87, label %94

87:                                               ; preds = %79
  %88 = load i32, ptr %12, align 4
  %89 = load i32, ptr %11, align 4
  %90 = add i32 %89, %88
  store i32 %90, ptr %11, align 4
  %91 = load i32, ptr %12, align 4
  %92 = load i32, ptr %13, align 4
  %93 = sub i32 %92, %91
  store i32 %93, ptr %13, align 4
  br label %94

94:                                               ; preds = %87, %79
  %95 = load i32, ptr %13, align 4
  %96 = icmp sle i32 %95, 0
  br i1 %96, label %97, label %98

97:                                               ; preds = %94
  store i32 1, ptr %14, align 4
  br label %150

98:                                               ; preds = %94
  %99 = load ptr, ptr %6, align 8
  %100 = load ptr, ptr %7, align 8
  %101 = load ptr, ptr %8, align 8
  %102 = load i32, ptr %11, align 4
  %103 = load i32, ptr %13, align 4
  %104 = call zeroext i16 @elem_tlv(ptr noundef %99, ptr noundef %100, ptr noundef %101, i8 noundef zeroext 72, i32 noundef 1, i32 noundef 14, i32 noundef %102, i32 noundef %103, ptr noundef null)
  %105 = zext i16 %104 to i32
  store i32 %105, ptr %12, align 4
  %106 = icmp ugt i32 %105, 0
  br i1 %106, label %107, label %114

107:                                              ; preds = %98
  %108 = load i32, ptr %12, align 4
  %109 = load i32, ptr %11, align 4
  %110 = add i32 %109, %108
  store i32 %110, ptr %11, align 4
  %111 = load i32, ptr %12, align 4
  %112 = load i32, ptr %13, align 4
  %113 = sub i32 %112, %111
  store i32 %113, ptr %13, align 4
  br label %114

114:                                              ; preds = %107, %98
  %115 = load i32, ptr %13, align 4
  %116 = icmp sle i32 %115, 0
  br i1 %116, label %117, label %118

117:                                              ; preds = %114
  store i32 1, ptr %14, align 4
  br label %150

118:                                              ; preds = %114
  %119 = load ptr, ptr %6, align 8
  %120 = load ptr, ptr %7, align 8
  %121 = load ptr, ptr %8, align 8
  %122 = load i32, ptr %11, align 4
  %123 = load i32, ptr %13, align 4
  %124 = call zeroext i16 @elem_tlv(ptr noundef %119, ptr noundef %120, ptr noundef %121, i8 noundef zeroext 73, i32 noundef 1, i32 noundef 15, i32 noundef %122, i32 noundef %123, ptr noundef null)
  %125 = zext i16 %124 to i32
  store i32 %125, ptr %12, align 4
  %126 = icmp ugt i32 %125, 0
  br i1 %126, label %127, label %134

127:                                              ; preds = %118
  %128 = load i32, ptr %12, align 4
  %129 = load i32, ptr %11, align 4
  %130 = add i32 %129, %128
  store i32 %130, ptr %11, align 4
  %131 = load i32, ptr %12, align 4
  %132 = load i32, ptr %13, align 4
  %133 = sub i32 %132, %131
  store i32 %133, ptr %13, align 4
  br label %134

134:                                              ; preds = %127, %118
  %135 = load i32, ptr %13, align 4
  %136 = icmp ugt i32 %135, 0
  br i1 %136, label %137, label %149

137:                                              ; preds = %134
  %138 = load ptr, ptr %7, align 8
  %139 = load ptr, ptr %8, align 8
  %140 = load ptr, ptr %6, align 8
  %141 = load i32, ptr %11, align 4
  %142 = load i32, ptr %13, align 4
  %143 = sub i32 %142, 0
  %144 = call ptr @proto_tree_add_expert(ptr noundef %138, ptr noundef %139, ptr noundef @ei_gsm_a_dtap_extraneous_data, ptr noundef %140, i32 noundef %141, i32 noundef %143)
  %145 = load i32, ptr %13, align 4
  %146 = sub i32 %145, 0
  %147 = load i32, ptr %11, align 4
  %148 = add i32 %147, %146
  store i32 %148, ptr %11, align 4
  br label %149

149:                                              ; preds = %137, %134
  store i32 0, ptr %14, align 4
  br label %150

150:                                              ; preds = %149, %117, %97, %78, %59, %39, %19
  call void @llvm.lifetime.end.p0(i64 4, ptr %13) #7
  call void @llvm.lifetime.end.p0(i64 4, ptr %12) #7
  call void @llvm.lifetime.end.p0(i64 4, ptr %11) #7
  %151 = load i32, ptr %14, align 4
  switch i32 %151, label %153 [
    i32 0, label %152
    i32 1, label %152
  ]

152:                                              ; preds = %150, %150
  ret void

153:                                              ; preds = %150
  unreachable
}